target datalayout = "e-m:e-p270:32:32-p271:32:32-p272:64:64-i64:64-i128:128-f80:128-n8:16:32:64-S128"
target triple = "x86_64-pc-linux-gnu"

%struct.VP8LBackwardRefs = type { i32, i32, ptr, ptr, ptr, ptr }
%struct.PixOrCopyBlock = type { ptr, ptr, i32 }
%struct.VP8LRefsCursor = type { ptr, ptr, ptr }
%struct.PixOrCopy = type { i8, i16, i32 }

; Function Attrs: nounwind uwtable
define hidden void @VP8LRefsCursorInit(ptr dead_on_unwind noalias writable sret(%struct.VP8LRefsCursor) align 8 %0, ptr noundef %1) #0 {
  %3 = alloca ptr, align 8
  store ptr %1, ptr %3, align 8, !tbaa !8
  %4 = load ptr, ptr %3, align 8, !tbaa !8
  %5 = getelementptr inbounds nuw %struct.VP8LBackwardRefs, ptr %4, i32 0, i32 2
  %6 = load ptr, ptr %5, align 8, !tbaa !17
  %7 = getelementptr inbounds nuw %struct.VP8LRefsCursor, ptr %0, i32 0, i32 1
  store ptr %6, ptr %7, align 8, !tbaa !24
  %8 = load ptr, ptr %3, align 8, !tbaa !8
  %9 = getelementptr inbounds nuw %struct.VP8LBackwardRefs, ptr %8, i32 0, i32 2
  %10 = load ptr, ptr %9, align 8, !tbaa !17
  %11 = icmp ne ptr %10, null
  br i1 %11, label %12, label %27

12:                                               ; preds = %2
  %13 = getelementptr inbounds nuw %struct.VP8LRefsCursor, ptr %0, i32 0, i32 1
  %14 = load ptr, ptr %13, align 8, !tbaa !24
  %15 = getelementptr inbounds nuw %struct.PixOrCopyBlock, ptr %14, i32 0, i32 1
  %16 = load ptr, ptr %15, align 8, !tbaa !26
  %17 = getelementptr inbounds nuw %struct.VP8LRefsCursor, ptr %0, i32 0, i32 0
  store ptr %16, ptr %17, align 8, !tbaa !27
  %18 = getelementptr inbounds nuw %struct.VP8LRefsCursor, ptr %0, i32 0, i32 0
  %19 = load ptr, ptr %18, align 8, !tbaa !27
  %20 = getelementptr inbounds nuw %struct.VP8LRefsCursor, ptr %0, i32 0, i32 1
  %21 = load ptr, ptr %20, align 8, !tbaa !24
  %22 = getelementptr inbounds nuw %struct.PixOrCopyBlock, ptr %21, i32 0, i32 2
  %23 = load i32, ptr %22, align 8, !tbaa !28
  %24 = sext i32 %23 to i64
  %25 = getelementptr inbounds %struct.PixOrCopy, ptr %19, i64 %24
  %26 = getelementptr inbounds nuw %struct.VP8LRefsCursor, ptr %0, i32 0, i32 2
  store ptr %25, ptr %26, align 8, !tbaa !29
  br label %30

27:                                               ; preds = %2
  %28 = getelementptr inbounds nuw %struct.VP8LRefsCursor, ptr %0, i32 0, i32 0
  store ptr null, ptr %28, align 8, !tbaa !27
  %29 = getelementptr inbounds nuw %struct.VP8LRefsCursor, ptr %0, i32 0, i32 2
  store ptr null, ptr %29, align 8, !tbaa !29
  br label %30

30:                                               ; preds = %27, %12
  ret void
}