; Function Attrs: mustprogress nofree norecurse nosync nounwind willreturn memory(read, argmem: readwrite, inaccessiblemem: none) uwtable
define hidden void @VP8LRefsCursorInit(ptr dead_on_unwind noalias writable writeonly sret(%struct.VP8LRefsCursor) align 8 captures(none) initializes((0, 24)) %0, ptr noundef readonly captures(none) %1) local_unnamed_addr #7 {
  %3 = getelementptr inbounds nuw i8, ptr %1, i64 8
  %4 = load ptr, ptr %3, align 8, !tbaa !14
  %5 = getelementptr inbounds nuw i8, ptr %0, i64 8
  store ptr %4, ptr %5, align 8, !tbaa !21
  %.not = icmp eq ptr %4, null
  br i1 %.not, label %13, label %6

6:                                                ; preds = %2
  %7 = getelementptr inbounds nuw i8, ptr %4, i64 8
  %8 = load ptr, ptr %7, align 8, !tbaa !23
  %9 = getelementptr inbounds nuw i8, ptr %4, i64 16
  %10 = load i32, ptr %9, align 8, !tbaa !24
  %11 = sext i32 %10 to i64
  %12 = getelementptr inbounds %struct.PixOrCopy, ptr %8, i64 %11
  br label %13

13:                                               ; preds = %2, %6
  %.sink2 = phi ptr [ %8, %6 ], [ null, %2 ]
  %.sink = phi ptr [ %12, %6 ], [ null, %2 ]
  store ptr %.sink2, ptr %0, align 8, !tbaa !25
  %14 = getelementptr inbounds nuw i8, ptr %0, i64 16
  store ptr %.sink, ptr %14, align 8, !tbaa !26
  ret void
}